; Function Attrs: mustprogress nounwind uwtable
define hidden void @_ZN3smt18quantifier_managerD2Ev(ptr noundef nonnull readonly align 8 captures(none) dereferenceable(13) %0) unnamed_addr #6 align 2 personality ptr @__gxx_personality_v0 {
  %2 = load ptr, ptr %0, align 8, !tbaa !82
  %3 = icmp eq ptr %2, null
  br i1 %3, label %_Z7deallocIN3smt18quantifier_manager3impEEvPT_.exit, label %4

4:                                                ; preds = %1
  tail call void @_ZN3smt18quantifier_manager3impD2Ev(ptr noundef nonnull align 8 dereferenceable(1172) %2) #22
  invoke void @_ZN6memory10deallocateEPv(ptr noundef nonnull %2)
          to label %_Z7deallocIN3smt18quantifier_manager3impEEvPT_.exit unwind label %5

_Z7deallocIN3smt18quantifier_manager3impEEvPT_.exit: ; preds = %1, %4
  ret void

5:                                                ; preds = %4
  %6 = landingpad { ptr, i32 }
          catch ptr null
  %7 = extractvalue { ptr, i32 } %6, 0
  tail call void @__clang_call_terminate(ptr %7) #24
  unreachable
}